Certificate:
    Data:
        Version: 3 (0x2)
        Serial Number: 1 (0x1)
    Signature Algorithm: sha256WithRSAEncryption
        Issuer: C=FR, ST=IDF, L=Paris, O=Tech, OU=SHWRFR, CN=Tech CA/name=EasyRSA/emailAddress=shwrfr@gmail.com
        Validity
            Not Before: Jan 16 13:31:24 2019 GMT
            Not After : Jan 13 13:31:24 2029 GMT
        Subject: C=FR, ST=IDF, L=Paris, O=Tech, OU=SHWRFR, CN=cpodedge/name=EasyRSA/emailAddress=shwrfr@gmail.com
        Subject Public Key Info:
            Public Key Algorithm: rsaEncryption
                Public-Key: (2048 bit)
                Modulus:
                    00:bf:d9:26:dc:2b:ba:bc:29:1a:a0:61:09:df:9d:
                    7e:07:b0:ab:30:7b:72:26:20:07:d3:eb:76:2a:88:
                    29:c0:50:6a:f2:1c:b6:13:ba:9f:1e:d5:46:a9:a2:
                    80:7d:7d:10:da:c5:c7:95:3a:41:d5:0e:ef:c6:1d:
                    d7:d6:01:03:0b:0e:c1:f0:82:d4:fe:61:ec:63:b0:
                    76:06:0a:70:13:08:43:91:48:dd:64:33:a8:87:af:
                    cb:35:ed:84:2e:63:f5:82:05:a4:df:2f:13:ed:f7:
                    fd:9d:f9:77:82:bf:d0:fa:ab:f6:03:07:38:3e:a9:
                    a4:a0:d8:4d:c0:ea:40:ef:5c:03:bf:97:a7:a3:80:
                    81:b9:d7:a5:93:ac:c8:50:57:07:06:95:0f:3e:49:
                    22:7f:a5:2a:75:8b:75:65:c9:42:c6:ee:5c:ff:00:
                    96:ac:fd:fd:00:7e:9b:df:fb:98:8d:62:77:18:5c:
                    15:12:dd:6d:53:08:8c:7a:69:eb:f7:4f:bb:75:69:
                    93:d8:2a:7b:a4:e1:44:44:cb:e5:83:47:83:d3:19:
                    6a:a7:4f:86:29:6b:60:91:04:11:1c:14:e2:e1:55:
                    e9:9c:80:5c:48:96:15:81:57:af:67:f8:b2:85:e5:
                    f0:3b:b4:9d:83:10:8f:a2:45:c3:65:50:41:12:74:
                    36:69
                Exponent: 65537 (0x10001)
        X509v3 extensions:
            X509v3 Basic Constraints: 
                CA:FALSE
            Netscape Cert Type: 
                SSL Server
            Netscape Comment: 
                Easy-RSA Generated Server Certificate
            X509v3 Subject Key Identifier: 
                C1:C5:D2:7D:9A:61:CB:40:27:62:8D:79:7B:94:15:96:EC:2B:50:DE
            X509v3 Authority Key Identifier: 
                keyid:5D:A5:48:95:EA:B7:21:D1:3F:16:DC:D2:6C:43:31:CB:68:4D:C7:13
                DirName:/C=FR/ST=IDF/L=Paris/O=Tech/OU=SHWRFR/CN=Tech CA/name=EasyRSA/emailAddress=shwrfr@gmail.com
                serial:FF:31:FA:5E:51:35:93:B5

            X509v3 Extended Key Usage: 
                TLS Web Server Authentication
            X509v3 Key Usage: 
                Digital Signature, Key Encipherment
            X509v3 Subject Alternative Name: 
                DNS:cpodedge
    Signature Algorithm: sha256WithRSAEncryption
         62:e5:0a:fe:c1:07:45:44:eb:05:af:13:02:45:70:42:8a:4f:
         a8:48:33:aa:33:60:e1:e4:c4:06:fe:38:2a:a5:4c:41:2d:65:
         8f:78:9d:4e:6b:c1:87:fa:c7:14:ec:dd:d7:ef:f5:84:61:9a:
         68:99:b0:af:04:b0:2a:80:33:fe:c2:15:66:e2:e5:72:0d:ce:
         e9:b0:8e:ba:6e:2c:6d:e0:54:2d:52:cf:6b:39:ab:83:e2:68:
         d2:87:78:02:63:fb:ef:0e:e0:f9:11:82:78:26:91:4d:0c:cc:
         a2:30:3d:68:e2:dd:72:23:af:57:c7:97:42:69:03:9d:4f:46:
         cb:42:dd:df:fc:6a:9e:d1:47:b4:ad:bd:7b:a9:e9:79:ce:4c:
         f4:06:82:b8:36:6e:df:a6:5e:60:9e:b4:35:d8:a2:11:ea:4a:
         29:68:ba:13:bc:6d:71:e1:ec:30:c5:bc:8a:14:f0:32:5b:ec:
         b7:fe:87:4c:5e:d5:a7:66:99:c7:2c:cc:11:cd:ca:d4:75:ab:
         f2:d7:32:53:d1:8d:3f:b7:d8:d1:c6:3b:99:f2:f2:6f:2b:b6:
         d3:06:9c:26:75:26:29:95:99:28:a2:22:66:54:16:19:c7:5f:
         98:85:53:b4:8c:cb:ef:64:d6:b9:69:62:70:94:35:b9:6e:e9:
         20:02:a9:d1
-----BEGIN CERTIFICATE-----
MIIFFjCCA/6gAwIBAgIBATANBgkqhkiG9w0BAQsFADCBkDELMAkGA1UEBhMCRlIx
DDAKBgNVBAgTA0lERjEOMAwGA1UEBxMFUGFyaXMxDTALBgNVBAoTBFRlY2gxDzAN
BgNVBAsTBlNIV1JGUjEQMA4GA1UEAxMHVGVjaCBDQTEQMA4GA1UEKRMHRWFzeVJT
QTEfMB0GCSqGSIb3DQEJARYQc2h3cmZyQGdtYWlsLmNvbTAeFw0xOTAxMTYxMzMx
MjRaFw0yOTAxMTMxMzMxMjRaMIGRMQswCQYDVQQGEwJGUjEMMAoGA1UECBMDSURG
MQ4wDAYDVQQHEwVQYXJpczENMAsGA1UEChMEVGVjaDEPMA0GA1UECxMGU0hXUkZS
MREwDwYDVQQDEwhjcG9kZWRnZTEQMA4GA1UEKRMHRWFzeVJTQTEfMB0GCSqGSIb3
DQEJARYQc2h3cmZyQGdtYWlsLmNvbTCCASIwDQYJKoZIhvcNAQEBBQADggEPADCC
AQoCggEBAL/ZJtwrurwpGqBhCd+dfgewqzB7ciYgB9PrdiqIKcBQavIcthO6nx7V
RqmigH19ENrFx5U6QdUO78Yd19YBAwsOwfCC1P5h7GOwdgYKcBMIQ5FI3WQzqIev
yzXthC5j9YIFpN8vE+33/Z35d4K/0Pqr9gMHOD6ppKDYTcDqQO9cA7+Xp6OAgbnX
pZOsyFBXBwaVDz5JIn+lKnWLdWXJQsbuXP8Alqz9/QB+m9/7mI1idxhcFRLdbVMI
jHpp6/dPu3Vpk9gqe6ThRETL5YNHg9MZaqdPhilrYJEEERwU4uFV6ZyAXEiWFYFX
r2f4soXl8Du0nYMQj6JFw2VQQRJ0NmkCAwEAAaOCAXYwggFyMAkGA1UdEwQCMAAw
EQYJYIZIAYb4QgEBBAQDAgZAMDQGCWCGSAGG+EIBDQQnFiVFYXN5LVJTQSBHZW5l
cmF0ZWQgU2VydmVyIENlcnRpZmljYXRlMB0GA1UdDgQWBBTBxdJ9mmHLQCdijXl7
lBWW7CtQ3jCBxQYDVR0jBIG9MIG6gBRdpUiV6rch0T8W3NJsQzHLaE3HE6GBlqSB
kzCBkDELMAkGA1UEBhMCRlIxDDAKBgNVBAgTA0lERjEOMAwGA1UEBxMFUGFyaXMx
DTALBgNVBAoTBFRlY2gxDzANBgNVBAsTBlNIV1JGUjEQMA4GA1UEAxMHVGVjaCBD
QTEQMA4GA1UEKRMHRWFzeVJTQTEfMB0GCSqGSIb3DQEJARYQc2h3cmZyQGdtYWls
LmNvbYIJAP8x+l5RNZO1MBMGA1UdJQQMMAoGCCsGAQUFBwMBMAsGA1UdDwQEAwIF
oDATBgNVHREEDDAKgghjcG9kZWRnZTANBgkqhkiG9w0BAQsFAAOCAQEAYuUK/sEH
RUTrBa8TAkVwQopPqEgzqjNg4eTEBv44KqVMQS1lj3idTmvBh/rHFOzd1+/1hGGa
aJmwrwSwKoAz/sIVZuLlcg3O6bCOum4sbeBULVLPazmrg+Jo0od4AmP77w7g+RGC
eCaRTQzMojA9aOLdciOvV8eXQmkDnU9Gy0Ld3/xqntFHtK29e6npec5M9AaCuDZu
36ZeYJ60NdiiEepKKWi6E7xtceHsMMW8ihTwMlvst/6HTF7Vp2aZxyzMEc3K1HWr
8tcyU9GNP7fY0cY7mfLybyu20wacJnUmKZWZKKIiZlQWGcdfmIVTtIzL72TWuWli
cJQ1uW7pIAKp0Q==
-----END CERTIFICATE-----
